; Function Attrs: mustprogress uwtable
define noundef zeroext i1 @_Z42gmx_get_tng_data_block_types_of_next_frameP18gmx_tng_trajectoryiiPlS1_S1_PS1_(ptr noundef readonly captures(none) %0, i32 noundef %1, i32 noundef %2, ptr noundef %3, ptr noundef %4, ptr noundef %5, ptr noundef %6) local_unnamed_addr #0 personality ptr @__gxx_personality_v0 {
  %8 = alloca %"class.std::__cxx11::basic_string", align 8
  %9 = alloca %"class.std::allocator", align 1
  %10 = alloca %"class.std::filesystem::__cxx11::path", align 8
  %11 = load ptr, ptr %0, align 8, !tbaa !41
  %12 = sext i32 %1 to i64
  %13 = sext i32 %2 to i64
  %14 = tail call i32 @tng_util_trajectory_next_frame_present_data_blocks_find(ptr noundef %11, i64 noundef %12, i64 noundef %13, ptr noundef %3, ptr noundef %4, ptr noundef %5, ptr noundef %6)
  %15 = icmp eq i32 %14, 2
  br i1 %15, label %16, label %32

16:                                               ; preds = %7
  call void @llvm.lifetime.start.p0(i64 32, ptr nonnull %8) #22
  call void @llvm.lifetime.start.p0(i64 1, ptr nonnull %9) #22
  call void @_ZNSt7__cxx1112basic_stringIcSt11char_traitsIcESaIcEEC2IS3_EEPKcRKS3_(ptr noundef nonnull align 8 dereferenceable(32) %8, ptr noundef nonnull @.str.47, ptr noundef nonnull align 1 dereferenceable(1) %9)
  call void @llvm.lifetime.start.p0(i64 40, ptr nonnull %10) #22
  invoke void @_ZNSt10filesystem7__cxx114pathC2IA122_cS1_EERKT_NS1_6formatE(ptr noundef nonnull align 8 dereferenceable(40) %10, ptr noundef nonnull align 1 dereferenceable(122) @.str, i8 noundef zeroext 2)
          to label %17 unwind label %19

17:                                               ; preds = %16
  invoke void @_Z18gmx_error_functionPKcRKNSt7__cxx1112basic_stringIcSt11char_traitsIcESaIcEEERKNSt10filesystem7__cxx114pathEi(ptr noundef nonnull @.str.12, ptr noundef nonnull align 8 dereferenceable(32) %8, ptr noundef nonnull align 8 dereferenceable(40) %10, i32 noundef 1795) #23
          to label %18 unwind label %21

18:                                               ; preds = %17
  unreachable

19:                                               ; preds = %16
  %20 = landingpad { ptr, i32 }
          cleanup
  br label %23

21:                                               ; preds = %17
  %22 = landingpad { ptr, i32 }
          cleanup
  call void @_ZNSt10filesystem7__cxx114pathD2Ev(ptr noundef nonnull align 8 dereferenceable(40) %10) #22
  br label %23

23:                                               ; preds = %21, %19
  %.pn = phi { ptr, i32 } [ %22, %21 ], [ %20, %19 ]
  call void @llvm.lifetime.end.p0(i64 40, ptr nonnull %10) #22
  %24 = load ptr, ptr %8, align 8, !tbaa !24
  %25 = getelementptr inbounds nuw i8, ptr %8, i64 16
  %26 = icmp eq ptr %24, %25
  br i1 %26, label %_ZNKSt7__cxx1112basic_stringIcSt11char_traitsIcESaIcEE11_M_is_localEv.exit.thread.i.i, label %_ZNKSt7__cxx1112basic_stringIcSt11char_traitsIcESaIcEE11_M_is_localEv.exit.i.i

_ZNKSt7__cxx1112basic_stringIcSt11char_traitsIcESaIcEE11_M_is_localEv.exit.thread.i.i: ; preds = %23
  %27 = getelementptr inbounds nuw i8, ptr %8, i64 8
  %28 = load i64, ptr %27, align 8, !tbaa !29
  %29 = icmp ult i64 %28, 16
  call void @llvm.assume(i1 %29)
  br label %_ZNSt7__cxx1112basic_stringIcSt11char_traitsIcESaIcEED2Ev.exit

_ZNKSt7__cxx1112basic_stringIcSt11char_traitsIcESaIcEE11_M_is_localEv.exit.i.i: ; preds = %23
  %30 = load i64, ptr %25, align 8, !tbaa !32
  %31 = add i64 %30, 1
  call void @_ZdlPvm(ptr noundef %24, i64 noundef %31) #24
  br label %_ZNSt7__cxx1112basic_stringIcSt11char_traitsIcESaIcEED2Ev.exit

_ZNSt7__cxx1112basic_stringIcSt11char_traitsIcESaIcEED2Ev.exit: ; preds = %_ZNKSt7__cxx1112basic_stringIcSt11char_traitsIcESaIcEE11_M_is_localEv.exit.i.i, %_ZNKSt7__cxx1112basic_stringIcSt11char_traitsIcESaIcEE11_M_is_localEv.exit.thread.i.i
  call void @llvm.lifetime.end.p0(i64 1, ptr nonnull %9) #22
  call void @llvm.lifetime.end.p0(i64 32, ptr nonnull %8) #22
  resume { ptr, i32 } %.pn

32:                                               ; preds = %7
  %33 = icmp ne i32 %14, 1
  ret i1 %33
}